; Function Attrs: mustprogress uwtable
define internal void @_ZN12_GLOBAL__N_115SmtPrintVisitor5sliceEN5Yosys10Functional4NodeES3_ii(ptr dead_on_unwind noalias writable sret(%"class.Yosys::SExpr") align 8 %0, ptr noundef nonnull align 8 dereferenceable(56) %1, ptr readnone captures(none) %2, i32 %3, ptr %4, i32 %5, i32 noundef %6, i32 noundef %7) unnamed_addr #5 align 2 personality ptr @__gxx_personality_v0 {
  %9 = alloca i32, align 4
  %10 = alloca %"class.Yosys::SExpr", align 8
  %11 = alloca i32, align 4
  %12 = alloca %"class.Yosys::Functional::Node", align 8
  %13 = alloca %"class.Yosys::SExpr", align 8
  call void @llvm.lifetime.start.p0(i64 40, ptr nonnull %13) #26
  call void @llvm.lifetime.start.p0(i64 16, ptr nonnull %12)
  store ptr %4, ptr %12, align 8, !noalias !500
  %14 = getelementptr inbounds nuw i8, ptr %12, i64 8
  store i32 %5, ptr %14, align 8, !noalias !500
  %15 = getelementptr inbounds nuw i8, ptr %1, i64 24
  %16 = load ptr, ptr %15, align 8, !tbaa !196, !noalias !500
  %.not.i.i = icmp eq ptr %16, null
  br i1 %.not.i.i, label %17, label %_ZNKSt8functionIFN5Yosys5SExprENS0_10Functional4NodeEEEclES3_.exit

17:                                               ; preds = %8
  tail call void @_ZSt25__throw_bad_function_callv() #28, !noalias !500
  unreachable

_ZNKSt8functionIFN5Yosys5SExprENS0_10Functional4NodeEEEclES3_.exit: ; preds = %8
  %18 = getelementptr inbounds nuw i8, ptr %1, i64 8
  %19 = getelementptr inbounds nuw i8, ptr %1, i64 32
  %20 = load ptr, ptr %19, align 8, !tbaa !198, !noalias !500
  call void %20(ptr dead_on_unwind nonnull writable sret(%"class.Yosys::SExpr") align 8 %13, ptr noundef nonnull align 8 dereferenceable(32) %18, ptr noundef nonnull align 8 dereferenceable(16) %12)
  call void @llvm.lifetime.end.p0(i64 16, ptr nonnull %12)
  call void @llvm.lifetime.start.p0(i64 4, ptr nonnull %9)
  store i32 %6, ptr %9, align 4, !tbaa !69, !noalias !503
  call void @llvm.lifetime.start.p0(i64 40, ptr nonnull %10) #26, !noalias !503
  call void @llvm.lifetime.start.p0(i64 4, ptr nonnull %11) #26, !noalias !503
  %21 = add i32 %6, -1
  %22 = add i32 %21, %7
  store i32 %22, ptr %11, align 4, !tbaa !69, !noalias !503
  invoke void @_ZN5Yosys9SExprUtil4listIJRA2_KcRA8_S2_iRiEEENS_5SExprEDpOT_(ptr dead_on_unwind nonnull writable sret(%"class.Yosys::SExpr") align 8 %10, ptr noundef nonnull align 1 dereferenceable(2) @.str.17, ptr noundef nonnull align 1 dereferenceable(8) @.str.88, ptr noundef nonnull align 4 dereferenceable(4) %11, ptr noundef nonnull align 4 dereferenceable(4) %9)
          to label %.noexc unwind label %49

.noexc:                                           ; preds = %_ZNKSt8functionIFN5Yosys5SExprENS0_10Functional4NodeEEEclES3_.exit
  invoke void @_ZN5Yosys9SExprUtil4listIJNS_5SExprES2_EEES2_DpOT_(ptr dead_on_unwind writable sret(%"class.Yosys::SExpr") align 8 %0, ptr noundef nonnull align 8 dereferenceable(40) %10, ptr noundef nonnull align 8 dereferenceable(40) %13)
          to label %23 unwind label %35

23:                                               ; preds = %.noexc
  %24 = getelementptr inbounds nuw i8, ptr %10, i64 32
  %25 = load i8, ptr %24, align 8, !tbaa !155, !noalias !503
  %switch.i.i.i.i = icmp eq i8 %25, 0
  br i1 %switch.i.i.i.i, label %.noexc1.i.i.i, label %26

.noexc1.i.i.i:                                    ; preds = %23
  call void @_ZNSt6vectorIN5Yosys5SExprESaIS1_EED2Ev(ptr noundef nonnull align 8 dereferenceable(40) %10) #26
  br label %37

26:                                               ; preds = %23
  %27 = load ptr, ptr %10, align 8, !tbaa !15, !noalias !503
  %28 = getelementptr inbounds nuw i8, ptr %10, i64 16
  %29 = icmp eq ptr %27, %28
  br i1 %29, label %_ZNKSt7__cxx1112basic_stringIcSt11char_traitsIcESaIcEE11_M_is_localEv.exit.thread.i.i.i.i.i.i.i.i.i.i.i, label %_ZNKSt7__cxx1112basic_stringIcSt11char_traitsIcESaIcEE11_M_is_localEv.exit.i.i.i.i.i.i.i.i.i.i.i

_ZNKSt7__cxx1112basic_stringIcSt11char_traitsIcESaIcEE11_M_is_localEv.exit.thread.i.i.i.i.i.i.i.i.i.i.i: ; preds = %26
  %30 = getelementptr inbounds nuw i8, ptr %10, i64 8
  %31 = load i64, ptr %30, align 8, !tbaa !20, !noalias !503
  %32 = icmp ult i64 %31, 16
  call void @llvm.assume(i1 %32)
  br label %37

_ZNKSt7__cxx1112basic_stringIcSt11char_traitsIcESaIcEE11_M_is_localEv.exit.i.i.i.i.i.i.i.i.i.i.i: ; preds = %26
  %33 = load i64, ptr %28, align 8, !tbaa !21, !noalias !503
  %34 = add i64 %33, 1
  call void @_ZdlPvm(ptr noundef %27, i64 noundef %34) #27
  br label %37

35:                                               ; preds = %.noexc
  %36 = landingpad { ptr, i32 }
          cleanup
  call void @_ZN5Yosys5SExprD2Ev(ptr noundef nonnull align 8 dereferenceable(40) %10) #26
  call void @llvm.lifetime.end.p0(i64 4, ptr nonnull %11) #26, !noalias !503
  call void @llvm.lifetime.end.p0(i64 40, ptr nonnull %10) #26, !noalias !503
  br label %.body

37:                                               ; preds = %_ZNKSt7__cxx1112basic_stringIcSt11char_traitsIcESaIcEE11_M_is_localEv.exit.i.i.i.i.i.i.i.i.i.i.i, %_ZNKSt7__cxx1112basic_stringIcSt11char_traitsIcESaIcEE11_M_is_localEv.exit.thread.i.i.i.i.i.i.i.i.i.i.i, %.noexc1.i.i.i
  call void @llvm.lifetime.end.p0(i64 4, ptr nonnull %11) #26, !noalias !503
  call void @llvm.lifetime.end.p0(i64 40, ptr nonnull %10) #26, !noalias !503
  call void @llvm.lifetime.end.p0(i64 4, ptr nonnull %9)
  %38 = getelementptr inbounds nuw i8, ptr %13, i64 32
  %39 = load i8, ptr %38, align 8, !tbaa !155
  %switch.i.i.i = icmp eq i8 %39, 0
  br i1 %switch.i.i.i, label %.noexc1.i.i, label %40

.noexc1.i.i:                                      ; preds = %37
  call void @_ZNSt6vectorIN5Yosys5SExprESaIS1_EED2Ev(ptr noundef nonnull align 8 dereferenceable(40) %13) #26
  br label %_ZN5Yosys5SExprD2Ev.exit

40:                                               ; preds = %37
  %41 = load ptr, ptr %13, align 8, !tbaa !15
  %42 = getelementptr inbounds nuw i8, ptr %13, i64 16
  %43 = icmp eq ptr %41, %42
  br i1 %43, label %_ZNKSt7__cxx1112basic_stringIcSt11char_traitsIcESaIcEE11_M_is_localEv.exit.thread.i.i.i.i.i.i.i.i.i.i, label %_ZNKSt7__cxx1112basic_stringIcSt11char_traitsIcESaIcEE11_M_is_localEv.exit.i.i.i.i.i.i.i.i.i.i

_ZNKSt7__cxx1112basic_stringIcSt11char_traitsIcESaIcEE11_M_is_localEv.exit.thread.i.i.i.i.i.i.i.i.i.i: ; preds = %40
  %44 = getelementptr inbounds nuw i8, ptr %13, i64 8
  %45 = load i64, ptr %44, align 8, !tbaa !20
  %46 = icmp ult i64 %45, 16
  call void @llvm.assume(i1 %46)
  br label %_ZN5Yosys5SExprD2Ev.exit

_ZNKSt7__cxx1112basic_stringIcSt11char_traitsIcESaIcEE11_M_is_localEv.exit.i.i.i.i.i.i.i.i.i.i: ; preds = %40
  %47 = load i64, ptr %42, align 8, !tbaa !21
  %48 = add i64 %47, 1
  call void @_ZdlPvm(ptr noundef %41, i64 noundef %48) #27
  br label %_ZN5Yosys5SExprD2Ev.exit

_ZN5Yosys5SExprD2Ev.exit:                         ; preds = %.noexc1.i.i, %_ZNKSt7__cxx1112basic_stringIcSt11char_traitsIcESaIcEE11_M_is_localEv.exit.thread.i.i.i.i.i.i.i.i.i.i, %_ZNKSt7__cxx1112basic_stringIcSt11char_traitsIcESaIcEE11_M_is_localEv.exit.i.i.i.i.i.i.i.i.i.i
  call void @llvm.lifetime.end.p0(i64 40, ptr nonnull %13) #26
  ret void

49:                                               ; preds = %_ZNKSt8functionIFN5Yosys5SExprENS0_10Functional4NodeEEEclES3_.exit
  %50 = landingpad { ptr, i32 }
          cleanup
  br label %.body

.body:                                            ; preds = %35, %49
  %eh.lpad-body = phi { ptr, i32 } [ %50, %49 ], [ %36, %35 ]
  call void @_ZN5Yosys5SExprD2Ev(ptr noundef nonnull align 8 dereferenceable(40) %13) #26
  call void @llvm.lifetime.end.p0(i64 40, ptr nonnull %13) #26
  resume { ptr, i32 } %eh.lpad-body
}